target datalayout = "e-m:e-p270:32:32-p271:32:32-p272:64:64-i64:64-i128:128-f80:128-n8:16:32:64-S128"
target triple = "x86_64-pc-linux-gnu"

%"class.pxrInternal_v0_24__pxrReserved__::PcpPropertyIndex" = type { %"class.std::vector", %"class.std::unique_ptr" }
%"class.std::vector" = type { %"struct.std::_Vector_base" }
%"struct.std::_Vector_base" = type { %"struct.std::_Vector_base<pxrInternal_v0_24__pxrReserved__::Pcp_PropertyInfo, std::allocator<pxrInternal_v0_24__pxrReserved__::Pcp_PropertyInfo>>::_Vector_impl" }
%"struct.std::_Vector_base<pxrInternal_v0_24__pxrReserved__::Pcp_PropertyInfo, std::allocator<pxrInternal_v0_24__pxrReserved__::Pcp_PropertyInfo>>::_Vector_impl" = type { %"struct.std::_Vector_base<pxrInternal_v0_24__pxrReserved__::Pcp_PropertyInfo, std::allocator<pxrInternal_v0_24__pxrReserved__::Pcp_PropertyInfo>>::_Vector_impl_data" }
%"struct.std::_Vector_base<pxrInternal_v0_24__pxrReserved__::Pcp_PropertyInfo, std::allocator<pxrInternal_v0_24__pxrReserved__::Pcp_PropertyInfo>>::_Vector_impl_data" = type { ptr, ptr, ptr }
%"class.std::unique_ptr" = type { %"struct.std::__uniq_ptr_data" }
%"struct.std::__uniq_ptr_data" = type { %"class.std::__uniq_ptr_impl" }
%"class.std::__uniq_ptr_impl" = type { %"class.std::tuple" }
%"class.std::tuple" = type { %"struct.std::_Tuple_impl" }
%"struct.std::_Tuple_impl" = type { %"struct.std::_Head_base.1" }
%"struct.std::_Head_base.1" = type { ptr }
%"struct.pxrInternal_v0_24__pxrReserved__::Pcp_PropertyInfo" = type { %"class.pxrInternal_v0_24__pxrReserved__::SdfHandle", %"class.pxrInternal_v0_24__pxrReserved__::PcpNodeRef" }
%"class.pxrInternal_v0_24__pxrReserved__::SdfHandle" = type { %"class.pxrInternal_v0_24__pxrReserved__::SdfPropertySpec" }
%"class.pxrInternal_v0_24__pxrReserved__::SdfPropertySpec" = type { %"class.pxrInternal_v0_24__pxrReserved__::SdfSpec" }
%"class.pxrInternal_v0_24__pxrReserved__::SdfSpec" = type { %"class.pxrInternal_v0_24__pxrReserved__::TfDelegatedCountPtr" }
%"class.pxrInternal_v0_24__pxrReserved__::TfDelegatedCountPtr" = type { ptr }
%"class.pxrInternal_v0_24__pxrReserved__::PcpNodeRef" = type { ptr, i64 }
%"struct.std::pair" = type { %"class.pxrInternal_v0_24__pxrReserved__::PcpPropertyIterator", %"class.pxrInternal_v0_24__pxrReserved__::PcpPropertyIterator" }
%"class.pxrInternal_v0_24__pxrReserved__::PcpPropertyIterator" = type { ptr, i64 }

; Function Attrs: mustprogress nounwind uwtable
define linkonce_odr void @_ZNSt4pairIN32pxrInternal_v0_24__pxrReserved__19PcpPropertyIteratorES1_EC2IS1_S1_TnNSt9enable_ifIXaaclsr5_PCCPE22_MoveConstructiblePairIT_T0_EEclsr5_PCCPE30_ImplicitlyMoveConvertiblePairIS5_S6_EEEbE4typeELb1EEEOS5_OS6_(ptr noundef nonnull align 8 dereferenceable(32) %0, ptr noundef nonnull align 8 dereferenceable(16) %1, ptr noundef nonnull align 8 dereferenceable(16) %2) unnamed_addr #0 comdat align 2 {
  %4 = alloca ptr, align 8
  %5 = alloca ptr, align 8
  %6 = alloca ptr, align 8
  store ptr %0, ptr %4, align 8
  store ptr %1, ptr %5, align 8
  store ptr %2, ptr %6, align 8
  %7 = load ptr, ptr %4, align 8
  %8 = getelementptr inbounds nuw %"struct.std::pair", ptr %7, i32 0, i32 0
  %9 = load ptr, ptr %5, align 8
  call void @llvm.memcpy.p0.p0.i64(ptr align 8 %8, ptr align 8 %9, i64 16, i1 false)
  %10 = getelementptr inbounds nuw %"struct.std::pair", ptr %7, i32 0, i32 1
  %11 = load ptr, ptr %6, align 8
  call void @llvm.memcpy.p0.p0.i64(ptr align 8 %10, ptr align 8 %11, i64 16, i1 false)
  ret void
}

; Function Attrs: mustprogress nounwind uwtable
define linkonce_odr noundef nonnull align 8 dereferenceable(24) ptr @_ZNKSt6vectorIN32pxrInternal_v0_24__pxrReserved__16Pcp_PropertyInfoESaIS1_EEixEm(ptr noundef nonnull align 8 dereferenceable(24) %0, i64 noundef %1) #0 comdat align 2 {
  %3 = alloca ptr, align 8
  %4 = alloca i64, align 8
  store ptr %0, ptr %3, align 8
  store i64 %1, ptr %4, align 8
  %5 = load ptr, ptr %3, align 8
  %6 = getelementptr inbounds nuw %"struct.std::_Vector_base", ptr %5, i32 0, i32 0
  %7 = getelementptr inbounds nuw %"struct.std::_Vector_base<pxrInternal_v0_24__pxrReserved__::Pcp_PropertyInfo, std::allocator<pxrInternal_v0_24__pxrReserved__::Pcp_PropertyInfo>>::_Vector_impl_data", ptr %6, i32 0, i32 0
  %8 = load ptr, ptr %7, align 8
  %9 = load i64, ptr %4, align 8
  %10 = getelementptr inbounds %"struct.pxrInternal_v0_24__pxrReserved__::Pcp_PropertyInfo", ptr %8, i64 %9
  ret ptr %10
}

; Function Attrs: mustprogress nounwind uwtable
define linkonce_odr noundef i64 @_ZNKSt6vectorIN32pxrInternal_v0_24__pxrReserved__16Pcp_PropertyInfoESaIS1_EE4sizeEv(ptr noundef nonnull align 8 dereferenceable(24) %0) #0 comdat align 2 {
  %2 = alloca ptr, align 8
  store ptr %0, ptr %2, align 8
  %3 = load ptr, ptr %2, align 8
  %4 = getelementptr inbounds nuw %"struct.std::_Vector_base", ptr %3, i32 0, i32 0
  %5 = getelementptr inbounds nuw %"struct.std::_Vector_base<pxrInternal_v0_24__pxrReserved__::Pcp_PropertyInfo, std::allocator<pxrInternal_v0_24__pxrReserved__::Pcp_PropertyInfo>>::_Vector_impl_data", ptr %4, i32 0, i32 1
  %6 = load ptr, ptr %5, align 8
  %7 = getelementptr inbounds nuw %"struct.std::_Vector_base", ptr %3, i32 0, i32 0
  %8 = getelementptr inbounds nuw %"struct.std::_Vector_base<pxrInternal_v0_24__pxrReserved__::Pcp_PropertyInfo, std::allocator<pxrInternal_v0_24__pxrReserved__::Pcp_PropertyInfo>>::_Vector_impl_data", ptr %7, i32 0, i32 0
  %9 = load ptr, ptr %8, align 8
  %10 = ptrtoint ptr %6 to i64
  %11 = ptrtoint ptr %9 to i64
  %12 = sub i64 %10, %11
  %13 = sdiv exact i64 %12, 24
  ret i64 %13
}

; Function Attrs: mustprogress uwtable
define void @_ZNK32pxrInternal_v0_24__pxrReserved__16PcpPropertyIndex16GetPropertyRangeEb(ptr dead_on_unwind noalias writable sret(%"struct.std::pair") align 8 %0, ptr noundef nonnull align 8 dereferenceable(32) %1, i1 noundef zeroext %2) #1 align 2 {
  %4 = alloca ptr, align 8
  %5 = alloca i8, align 1
  %6 = alloca i64, align 8
  %7 = alloca i64, align 8
  %8 = alloca i8, align 1
  %9 = alloca %"class.pxrInternal_v0_24__pxrReserved__::PcpPropertyIterator", align 8
  %10 = alloca %"class.pxrInternal_v0_24__pxrReserved__::PcpPropertyIterator", align 8
  %11 = alloca %"class.pxrInternal_v0_24__pxrReserved__::PcpPropertyIterator", align 8
  %12 = alloca %"class.pxrInternal_v0_24__pxrReserved__::PcpPropertyIterator", align 8
  store ptr %1, ptr %4, align 8
  %13 = zext i1 %2 to i8
  store i8 %13, ptr %5, align 1
  %14 = load ptr, ptr %4, align 8
  %15 = load i8, ptr %5, align 1
  %16 = trunc i8 %15 to i1
  br i1 %16, label %17, label %71

17:                                               ; preds = %3
  store i64 0, ptr %6, align 8
  br label %18

18:                                               ; preds = %31, %17
  %19 = load i64, ptr %6, align 8
  %20 = getelementptr inbounds nuw %"class.pxrInternal_v0_24__pxrReserved__::PcpPropertyIndex", ptr %14, i32 0, i32 0
  %21 = call noundef i64 @_ZNKSt6vectorIN32pxrInternal_v0_24__pxrReserved__16Pcp_PropertyInfoESaIS1_EE4sizeEv(ptr noundef nonnull align 8 dereferenceable(24) %20) #11
  %22 = icmp ult i64 %19, %21
  br i1 %22, label %23, label %34

23:                                               ; preds = %18
  %24 = getelementptr inbounds nuw %"class.pxrInternal_v0_24__pxrReserved__::PcpPropertyIndex", ptr %14, i32 0, i32 0
  %25 = load i64, ptr %6, align 8
  %26 = call noundef nonnull align 8 dereferenceable(24) ptr @_ZNKSt6vectorIN32pxrInternal_v0_24__pxrReserved__16Pcp_PropertyInfoESaIS1_EEixEm(ptr noundef nonnull align 8 dereferenceable(24) %24, i64 noundef %25) #11
  %27 = getelementptr inbounds nuw %"struct.pxrInternal_v0_24__pxrReserved__::Pcp_PropertyInfo", ptr %26, i32 0, i32 1
  %28 = call noundef zeroext i1 @_ZNK32pxrInternal_v0_24__pxrReserved__10PcpNodeRef10IsRootNodeEv(ptr noundef nonnull align 8 dereferenceable(16) %27)
  br i1 %28, label %29, label %30

29:                                               ; preds = %23
  br label %34

30:                                               ; preds = %23
  br label %31

31:                                               ; preds = %30
  %32 = load i64, ptr %6, align 8
  %33 = add i64 %32, 1
  store i64 %33, ptr %6, align 8
  br label %18, !llvm.loop !4

34:                                               ; preds = %29, %18
  %35 = load i64, ptr %6, align 8
  store i64 %35, ptr %7, align 8
  br label %36

36:                                               ; preds = %49, %34
  %37 = load i64, ptr %7, align 8
  %38 = getelementptr inbounds nuw %"class.pxrInternal_v0_24__pxrReserved__::PcpPropertyIndex", ptr %14, i32 0, i32 0
  %39 = call noundef i64 @_ZNKSt6vectorIN32pxrInternal_v0_24__pxrReserved__16Pcp_PropertyInfoESaIS1_EE4sizeEv(ptr noundef nonnull align 8 dereferenceable(24) %38) #11
  %40 = icmp ult i64 %37, %39
  br i1 %40, label %41, label %52

41:                                               ; preds = %36
  %42 = getelementptr inbounds nuw %"class.pxrInternal_v0_24__pxrReserved__::PcpPropertyIndex", ptr %14, i32 0, i32 0
  %43 = load i64, ptr %7, align 8
  %44 = call noundef nonnull align 8 dereferenceable(24) ptr @_ZNKSt6vectorIN32pxrInternal_v0_24__pxrReserved__16Pcp_PropertyInfoESaIS1_EEixEm(ptr noundef nonnull align 8 dereferenceable(24) %42, i64 noundef %43) #11
  %45 = getelementptr inbounds nuw %"struct.pxrInternal_v0_24__pxrReserved__::Pcp_PropertyInfo", ptr %44, i32 0, i32 1
  %46 = call noundef zeroext i1 @_ZNK32pxrInternal_v0_24__pxrReserved__10PcpNodeRef10IsRootNodeEv(ptr noundef nonnull align 8 dereferenceable(16) %45)
  br i1 %46, label %48, label %47

47:                                               ; preds = %41
  br label %52

48:                                               ; preds = %41
  br label %49

49:                                               ; preds = %48
  %50 = load i64, ptr %7, align 8
  %51 = add i64 %50, 1
  store i64 %51, ptr %7, align 8
  br label %36, !llvm.loop !6

52:                                               ; preds = %47, %36
  %53 = load i64, ptr %6, align 8
  %54 = load i64, ptr %7, align 8
  %55 = icmp ne i64 %53, %54
  %56 = zext i1 %55 to i8
  store i8 %56, ptr %8, align 1
  %57 = load i8, ptr %8, align 1
  %58 = trunc i8 %57 to i1
  br i1 %58, label %59, label %61

59:                                               ; preds = %52
  %60 = load i64, ptr %6, align 8
  br label %62

61:                                               ; preds = %52
  br label %62

62:                                               ; preds = %61, %59
  %63 = phi i64 [ %60, %59 ], [ 0, %61 ]
  call void @_ZN32pxrInternal_v0_24__pxrReserved__19PcpPropertyIteratorC1ERKNS_16PcpPropertyIndexEm(ptr noundef nonnull align 8 dereferenceable(16) %9, ptr noundef nonnull align 8 dereferenceable(32) %14, i64 noundef %63)
  %64 = load i8, ptr %8, align 1
  %65 = trunc i8 %64 to i1
  br i1 %65, label %66, label %68

66:                                               ; preds = %62
  %67 = load i64, ptr %7, align 8
  br label %69

68:                                               ; preds = %62
  br label %69

69:                                               ; preds = %68, %66
  %70 = phi i64 [ %67, %66 ], [ 0, %68 ]
  call void @_ZN32pxrInternal_v0_24__pxrReserved__19PcpPropertyIteratorC1ERKNS_16PcpPropertyIndexEm(ptr noundef nonnull align 8 dereferenceable(16) %10, ptr noundef nonnull align 8 dereferenceable(32) %14, i64 noundef %70)
  call void @_ZNSt4pairIN32pxrInternal_v0_24__pxrReserved__19PcpPropertyIteratorES1_EC2IS1_S1_TnNSt9enable_ifIXaaclsr5_PCCPE22_MoveConstructiblePairIT_T0_EEclsr5_PCCPE30_ImplicitlyMoveConvertiblePairIS5_S6_EEEbE4typeELb1EEEOS5_OS6_(ptr noundef nonnull align 8 dereferenceable(32) %0, ptr noundef nonnull align 8 dereferenceable(16) %9, ptr noundef nonnull align 8 dereferenceable(16) %10)
  br label %74

71:                                               ; preds = %3
  call void @_ZN32pxrInternal_v0_24__pxrReserved__19PcpPropertyIteratorC1ERKNS_16PcpPropertyIndexEm(ptr noundef nonnull align 8 dereferenceable(16) %11, ptr noundef nonnull align 8 dereferenceable(32) %14, i64 noundef 0)
  %72 = getelementptr inbounds nuw %"class.pxrInternal_v0_24__pxrReserved__::PcpPropertyIndex", ptr %14, i32 0, i32 0
  %73 = call noundef i64 @_ZNKSt6vectorIN32pxrInternal_v0_24__pxrReserved__16Pcp_PropertyInfoESaIS1_EE4sizeEv(ptr noundef nonnull align 8 dereferenceable(24) %72) #11
  call void @_ZN32pxrInternal_v0_24__pxrReserved__19PcpPropertyIteratorC1ERKNS_16PcpPropertyIndexEm(ptr noundef nonnull align 8 dereferenceable(16) %12, ptr noundef nonnull align 8 dereferenceable(32) %14, i64 noundef %73)
  call void @_ZNSt4pairIN32pxrInternal_v0_24__pxrReserved__19PcpPropertyIteratorES1_EC2IS1_S1_TnNSt9enable_ifIXaaclsr5_PCCPE22_MoveConstructiblePairIT_T0_EEclsr5_PCCPE30_ImplicitlyMoveConvertiblePairIS5_S6_EEEbE4typeELb1EEEOS5_OS6_(ptr noundef nonnull align 8 dereferenceable(32) %0, ptr noundef nonnull align 8 dereferenceable(16) %11, ptr noundef nonnull align 8 dereferenceable(16) %12)
  br label %74

74:                                               ; preds = %71, %69
  ret void
}