; Function Attrs: mustprogress uwtable
define void @_ZNK32pxrInternal_v0_24__pxrReserved__16PcpPropertyIndex16GetPropertyRangeEb(ptr dead_on_unwind noalias nocapture writable writeonly sret(%"struct.std::pair") align 8 %0, ptr noundef nonnull align 8 dereferenceable(32) %1, i1 noundef zeroext %2) local_unnamed_addr #2 align 2 {
  %4 = alloca %"class.pxrInternal_v0_24__pxrReserved__::PcpPropertyIterator", align 8
  %5 = alloca %"class.pxrInternal_v0_24__pxrReserved__::PcpPropertyIterator", align 8
  %6 = alloca %"class.pxrInternal_v0_24__pxrReserved__::PcpPropertyIterator", align 8
  %7 = alloca %"class.pxrInternal_v0_24__pxrReserved__::PcpPropertyIterator", align 8
  br i1 %2, label %.preheader, label %42

.preheader:                                       ; preds = %3
  %8 = getelementptr inbounds nuw i8, ptr %1, i64 8
  %9 = load ptr, ptr %8, align 8
  %10 = load ptr, ptr %1, align 8
  %.not25 = icmp eq ptr %9, %10
  br i1 %.not25, label %._crit_edge, label %.lr.ph

.lr.ph:                                           ; preds = %.preheader, %14
  %11 = phi ptr [ %.pre26.pre, %14 ], [ %10, %.preheader ]
  %.015 = phi i64 [ %15, %14 ], [ 0, %.preheader ]
  %12 = getelementptr inbounds %"struct.pxrInternal_v0_24__pxrReserved__::Pcp_PropertyInfo", ptr %11, i64 %.015, i32 1
  %13 = tail call noundef zeroext i1 @_ZNK32pxrInternal_v0_24__pxrReserved__10PcpNodeRef10IsRootNodeEv(ptr noundef nonnull align 8 dereferenceable(16) %12)
  %.pre.pre = load ptr, ptr %8, align 8
  %.pre26.pre = load ptr, ptr %1, align 8
  br i1 %13, label %._crit_edge, label %14

14:                                               ; preds = %.lr.ph
  %15 = add nuw i64 %.015, 1
  %16 = ptrtoint ptr %.pre.pre to i64
  %17 = ptrtoint ptr %.pre26.pre to i64
  %18 = sub i64 %16, %17
  %19 = sdiv exact i64 %18, 24
  %20 = icmp ult i64 %15, %19
  br i1 %20, label %.lr.ph, label %._crit_edge, !llvm.loop !12

._crit_edge:                                      ; preds = %14, %.lr.ph, %.preheader
  %21 = phi ptr [ %10, %.preheader ], [ %.pre26.pre, %.lr.ph ], [ %.pre26.pre, %14 ]
  %22 = phi ptr [ %9, %.preheader ], [ %.pre.pre, %.lr.ph ], [ %.pre.pre, %14 ]
  %.0.lcssa = phi i64 [ 0, %.preheader ], [ %15, %14 ], [ %.015, %.lr.ph ]
  %23 = ptrtoint ptr %22 to i64
  %24 = ptrtoint ptr %21 to i64
  %25 = sub i64 %23, %24
  %26 = sdiv exact i64 %25, 24
  %27 = icmp ult i64 %.0.lcssa, %26
  br i1 %27, label %.lr.ph20, label %._crit_edge21

.lr.ph20:                                         ; preds = %._crit_edge, %31
  %28 = phi ptr [ %34, %31 ], [ %21, %._crit_edge ]
  %.01418 = phi i64 [ %32, %31 ], [ %.0.lcssa, %._crit_edge ]
  %29 = getelementptr inbounds %"struct.pxrInternal_v0_24__pxrReserved__::Pcp_PropertyInfo", ptr %28, i64 %.01418, i32 1
  %30 = tail call noundef zeroext i1 @_ZNK32pxrInternal_v0_24__pxrReserved__10PcpNodeRef10IsRootNodeEv(ptr noundef nonnull align 8 dereferenceable(16) %29)
  br i1 %30, label %31, label %._crit_edge21

31:                                               ; preds = %.lr.ph20
  %32 = add nuw i64 %.01418, 1
  %33 = load ptr, ptr %8, align 8
  %34 = load ptr, ptr %1, align 8
  %35 = ptrtoint ptr %33 to i64
  %36 = ptrtoint ptr %34 to i64
  %37 = sub i64 %35, %36
  %38 = sdiv exact i64 %37, 24
  %39 = icmp ult i64 %32, %38
  br i1 %39, label %.lr.ph20, label %._crit_edge21, !llvm.loop !13

._crit_edge21:                                    ; preds = %31, %.lr.ph20, %._crit_edge
  %.014.lcssa = phi i64 [ %.0.lcssa, %._crit_edge ], [ %.01418, %.lr.ph20 ], [ %32, %31 ]
  %.not = icmp eq i64 %.0.lcssa, %.014.lcssa
  %40 = select i1 %.not, i64 0, i64 %.0.lcssa
  call void @_ZN32pxrInternal_v0_24__pxrReserved__19PcpPropertyIteratorC1ERKNS_16PcpPropertyIndexEm(ptr noundef nonnull align 8 dereferenceable(16) %4, ptr noundef nonnull align 8 dereferenceable(32) %1, i64 noundef %40)
  %41 = select i1 %.not, i64 0, i64 %.014.lcssa
  call void @_ZN32pxrInternal_v0_24__pxrReserved__19PcpPropertyIteratorC1ERKNS_16PcpPropertyIndexEm(ptr noundef nonnull align 8 dereferenceable(16) %5, ptr noundef nonnull align 8 dereferenceable(32) %1, i64 noundef %41)
  br label %50

42:                                               ; preds = %3
  call void @_ZN32pxrInternal_v0_24__pxrReserved__19PcpPropertyIteratorC1ERKNS_16PcpPropertyIndexEm(ptr noundef nonnull align 8 dereferenceable(16) %6, ptr noundef nonnull align 8 dereferenceable(32) %1, i64 noundef 0)
  %43 = getelementptr inbounds nuw i8, ptr %1, i64 8
  %44 = load ptr, ptr %43, align 8
  %45 = load ptr, ptr %1, align 8
  %46 = ptrtoint ptr %44 to i64
  %47 = ptrtoint ptr %45 to i64
  %48 = sub i64 %46, %47
  %49 = sdiv exact i64 %48, 24
  call void @_ZN32pxrInternal_v0_24__pxrReserved__19PcpPropertyIteratorC1ERKNS_16PcpPropertyIndexEm(ptr noundef nonnull align 8 dereferenceable(16) %7, ptr noundef nonnull align 8 dereferenceable(32) %1, i64 noundef %49)
  br label %50

50:                                               ; preds = %42, %._crit_edge21
  %.sink = phi ptr [ %6, %42 ], [ %4, %._crit_edge21 ]
  %.sink27 = phi ptr [ %7, %42 ], [ %5, %._crit_edge21 ]
  call void @llvm.memcpy.p0.p0.i64(ptr noundef nonnull align 8 dereferenceable(16) %0, ptr noundef nonnull align 8 dereferenceable(16) %.sink, i64 16, i1 false)
  %51 = getelementptr inbounds nuw i8, ptr %0, i64 16
  call void @llvm.memcpy.p0.p0.i64(ptr noundef nonnull align 8 dereferenceable(16) %51, ptr noundef nonnull align 8 dereferenceable(16) %.sink27, i64 16, i1 false)
  ret void
}